; Function Attrs: nounwind uwtable
define range(i32 -1, 1) i32 @H5CX_get_err_detect(ptr nocapture noundef writeonly %0) local_unnamed_addr #0 {
  %2 = load ptr, ptr @H5CX_head_g, align 8
  %3 = getelementptr inbounds i8, ptr %2, i64 216
  %4 = load i8, ptr %3, align 8
  %5 = trunc i8 %4 to i1
  br i1 %5, label %39, label %6

6:                                                ; preds = %1
  %7 = load i64, ptr %2, align 8
  %8 = load i64, ptr @H5P_LST_DATASET_XFER_ID_g, align 8
  %9 = icmp eq i64 %7, %8
  br i1 %9, label %10, label %13

10:                                               ; preds = %6
  %11 = getelementptr inbounds i8, ptr %2, i64 212
  %12 = load i32, ptr getelementptr inbounds (i8, ptr @H5CX_def_dxpl_cache, i64 64), align 8
  store i32 %12, ptr %11, align 4
  br label %36

13:                                               ; preds = %6
  %14 = getelementptr inbounds i8, ptr %2, i64 8
  %15 = load ptr, ptr %14, align 8
  %16 = icmp eq ptr %15, null
  br i1 %16, label %17, label %26

17:                                               ; preds = %13
  %18 = tail call ptr @H5I_object(i64 noundef %7) #13
  %19 = load ptr, ptr @H5CX_head_g, align 8
  %20 = getelementptr inbounds i8, ptr %19, i64 8
  store ptr %18, ptr %20, align 8
  %21 = icmp eq ptr %18, null
  br i1 %21, label %22, label %26

22:                                               ; preds = %17
  %23 = load i64, ptr @H5E_CONTEXT_g, align 8
  %24 = load i64, ptr @H5E_BADTYPE_g, align 8
  %25 = tail call i32 (ptr, ptr, i32, i64, i64, ptr, ...) @H5E_printf_stack(ptr noundef nonnull @.str, ptr noundef nonnull @__func__.H5CX_get_err_detect, i32 noundef 2294, i64 noundef %23, i64 noundef %24, ptr noundef nonnull @.str.56) #13
  br label %43

26:                                               ; preds = %17, %13
  %27 = phi ptr [ %18, %17 ], [ %15, %13 ]
  %28 = phi ptr [ %19, %17 ], [ %2, %13 ]
  %29 = getelementptr inbounds i8, ptr %28, i64 212
  %30 = tail call i32 @H5P_get(ptr noundef nonnull %27, ptr noundef nonnull @.str.14, ptr noundef nonnull %29) #13
  %31 = icmp slt i32 %30, 0
  br i1 %31, label %32, label %._crit_edge

._crit_edge:                                      ; preds = %26
  %.pre = load ptr, ptr @H5CX_head_g, align 8
  br label %36

32:                                               ; preds = %26
  %33 = load i64, ptr @H5E_CONTEXT_g, align 8
  %34 = load i64, ptr @H5E_CANTGET_g, align 8
  %35 = tail call i32 (ptr, ptr, i32, i64, i64, ptr, ...) @H5E_printf_stack(ptr noundef nonnull @.str, ptr noundef nonnull @__func__.H5CX_get_err_detect, i32 noundef 2294, i64 noundef %33, i64 noundef %34, ptr noundef nonnull @.str.75) #13
  br label %43

36:                                               ; preds = %._crit_edge, %10
  %37 = phi ptr [ %.pre, %._crit_edge ], [ %2, %10 ]
  %38 = getelementptr inbounds i8, ptr %37, i64 216
  store i8 1, ptr %38, align 8
  br label %39

39:                                               ; preds = %36, %1
  %40 = phi ptr [ %37, %36 ], [ %2, %1 ]
  %41 = getelementptr inbounds i8, ptr %40, i64 212
  %42 = load i32, ptr %41, align 4
  store i32 %42, ptr %0, align 4
  br label %43

43:                                               ; preds = %39, %32, %22
  %.0 = phi i32 [ 0, %39 ], [ -1, %22 ], [ -1, %32 ]
  ret i32 %.0
}